cpCore.Serialization
RawObjectConstructor
p1
(cpMolecule.System
System
p2
tRp3
(dp4
S'energyModel'
p5
g1
(cpMolecule.EnergyModel
EnergyModel
p6
tRp7
(dp8
S'qcModel'
p9
g1
(cpMolecule.QCModelMNDO
QCModelMNDO
p10
tRp11
(dp12
S'fermiBroadening'
p13
F1000
sS'orbitalBasis'
p14
S'mndostong'
p15
sS'numberFractionalAlphaLUOs'
p16
I0
sS'numberFractionalLUOs'
p17
I0
sS'numberFractionalHOOs'
p18
I1
sS'hasCI'
p19
I00
sS'linkAtomRatio'
p20
I1
sS'converger'
p21
g1
(cpMolecule.DIISSCFConverger
DIISSCFConverger
p22
tRp23
(dp24
S'maximumSCFCycles'
p25
I100
sS'densityTolerance'
p26
F1e-08
sS'energyTolerance'
p27
F0.00020000000000000001
sS'useRCA'
p28
I01
sS'diisOnset'
p29
F0.20000000000000001
sS'history'
p30
I10
sbsS'label'
p31
S'AM1'
p32
sS'qcChargeModel'
p33
S'Lowdin'
p34
sS'occupancyType'
p35
S'Cardinal'
p36
sS'isSpinRestricted'
p37
I1
sS'keepOrbitalData'
p38
I0
sS'numberFractionalAlphaHOOs'
p39
I1
sS'mndoModel'
p40
S'am1'
p41
sS'numberFractionalBetaLUOs'
p42
I0
sS'numberFractionalBetaHOOs'
p43
I1
sbsS'qcParameters'
p44
g1
(cpMolecule.QCParameters
QCParameters
p45
tRp46
(dp47
S'centers'
p48
(lp49
(dp50
S'atomicNumber'
p51
I1
sg14
g1
(cpMolecule.GaussianBasis
GaussianBasis
p52
tRp53
(dp54
S'Normalized Primitives'
p55
I01
sS'Atomic Number'
p56
I1
sS'Is Spherical'
p57
I01
sS'Primitive Fields'
p58
(lp59
S'Exponent'
p60
aS'Coefficients'
p61
asS'Shells'
p62
(lp63
(dp64
S'Primitives'
p65
(lp66
(lp67
F23.103031489999999
a(lp68
F0.0091635962800000002
aaa(lp69
F4.2359155340000001
a(lp70
F0.049361492940000001
aaa(lp71
F1.185056519
a(lp72
F0.16853830489999999
aaa(lp73
F0.4070988982
a(lp74
F0.3705627997
aaa(lp75
F0.15808841509999999
a(lp76
F0.41649152979999998
aaa(lp77
F0.065109539539999997
a(lp78
F0.1303340841
aaasS'Type'
p79
S'S'
sasbsS'mndoParameters'
p80
g1
(cpMolecule.MNDOParameters
MNDOParameters
p81
tRp82
(dp83
S'AM1/PM3 Gaussian Parameter Fields'
p84
(lp85
S'fn1'
p86
aS'fn2'
p87
aS'fn3'
p88
asS'Scalar Parameters'
p89
(lp90
(lp91
g51
aI1
aS'none'
p92
aa(lp93
S'orbitals'
p94
aI1
ag92
aa(lp95
S'iii'
p96
aI1
ag92
aa(lp97
S'iiid'
p98
aI3
ag92
aa(lp99
S'ir016'
p100
aI0
ag92
aa(lp101
S'ir066'
p102
aI0
ag92
aa(lp103
S'ir244'
p104
aI0
ag92
aa(lp105
S'ir266'
p106
aI0
ag92
aa(lp107
S'ir466'
p108
aI0
ag92
aa(lp109
S'qnd'
p110
aI0
ag92
aa(lp111
S'qnp'
p112
aI0
ag92
aa(lp113
S'qns'
p114
aI1
ag92
aa(lp115
S'ad'
p116
aF0.47215534069465898
aS'atomic'
p117
aa(lp118
S'alp'
p119
aF2.8823240000000001
aS'A^-1'
p120
aa(lp121
S'am'
p122
aF0.47215534069465898
ag117
aa(lp123
S'aq'
p124
aF0.47215534069465898
ag117
aa(lp125
S'betad'
p126
aF0
aS'eV'
p127
aa(lp128
S'betap'
p129
aF0
ag127
aa(lp130
S'betas'
p131
aF-6.1737869999999999
ag127
aa(lp132
S'dd'
p133
aF0
ag117
aa(lp134
S'eheat'
p135
aF52.101999999999997
aS'kcal/mole'
p136
aa(lp137
S'eisol'
p138
aF-11.396426999999999
ag127
aa(lp139
S'f0sd'
p140
aF0
ag127
aa(lp141
S'gphot'
p142
aF1
aS'dimensionless'
p143
aa(lp144
S'gpp'
p145
aF0
ag127
aa(lp146
S'gp2'
p147
aF0
ag127
aa(lp148
S'gsp'
p149
aF0
ag127
aa(lp150
S'gss'
p151
aF12.848000000000001
ag127
aa(lp152
S'g2sd'
p153
aF0
ag127
aa(lp154
S'hsp'
p155
aF0
ag127
aa(lp156
S'pcore'
p157
aF0
ag117
aa(lp158
S'qq'
p159
aF0
ag117
aa(lp160
S'udd'
p161
aF0
ag127
aa(lp162
S'upp'
p163
aF0
ag127
aa(lp164
S'uss'
p165
aF-11.396426999999999
ag127
aa(lp166
S'zcore'
p167
aF1
ag117
aa(lp168
S'zetad'
p169
aF0
ag117
aa(lp170
S'zetap'
p171
aF0
ag117
aa(lp172
S'zetas'
p173
aF1.188078
ag117
aa(lp174
S'zdn'
p175
aF0
ag117
aa(lp176
S'zpn'
p177
aF0
ag117
aa(lp178
S'zsn'
p179
aF0
ag117
aasS'AM1/PM3 Gaussian Parameters'
p180
(lp181
(lp182
F0.122796
aF5
aF1.2
aa(lp183
F0.0050899999999999999
aF5
aF1.8
aa(lp184
F-0.018336000000000002
aF2
aF2.1000000000000001
aasS'AM1/PM3 Gaussian Parameter Units'
p185
(lp186
S'A eV'
p187
aS'A^-2'
p188
aS'A'
asS'Scalar Parameter Fields'
p189
(lp190
S'Label'
p191
aS'Value'
p192
aS'Units'
p193
asbsa(dp194
g51
I6
sg14
g1
(g52
tRp195
(dp196
g55
I01
sg56
I6
sg57
I01
sg58
(lp197
g60
ag61
asg62
(lp198
(dp199
g65
(lp200
(lp201
F27.684962410000001
a(lp202
F-0.0041512778189999999
aaa(lp203
F5.0771406270000004
a(lp204
F-0.02067024148
aaa(lp205
F1.42678605
a(lp206
F-0.05150303337
aaa(lp207
F0.20403357289999999
a(lp208
F0.33462711740000001
aaa(lp209
F0.092602983989999998
a(lp210
F0.56210613009999999
aaa(lp211
F0.044161839780000003
a(lp212
F0.17129946970000001
aaasg79
S'S'
sa(dp213
g65
(lp214
(lp215
F5.8682859130000002
a(lp216
F0.0079242336459999993
aaa(lp217
F1.5303296310000001
a(lp218
F0.051441048250000003
aaa(lp219
F0.54756652309999998
a(lp220
F0.18984000600000001
aaa(lp221
F0.22889327330000001
a(lp222
F0.40498631909999999
aaa(lp223
F0.1046655969
a(lp224
F0.40123628610000001
aaa(lp225
F0.049482201269999998
a(lp226
F0.1051855189
aaasg79
S'P'
sasbsg80
g1
(g81
tRp227
(dp228
g84
(lp229
g86
ag87
ag88
asg89
(lp230
(lp231
g51
aI6
ag92
aa(lp232
g94
aI4
ag92
aa(lp233
g96
aI2
ag92
aa(lp234
g98
aI3
ag92
aa(lp235
g100
aI0
ag92
aa(lp236
g102
aI0
ag92
aa(lp237
g104
aI0
ag92
aa(lp238
g106
aI0
ag92
aa(lp239
g108
aI0
ag92
aa(lp240
g110
aI0
ag92
aa(lp241
g112
aI2
ag92
aa(lp242
g114
aI2
ag92
aa(lp243
g116
aF0.60828054938541598
ag117
aa(lp244
g119
aF2.6482739999999998
ag120
aa(lp245
g122
aF0.44944425721479497
ag117
aa(lp246
g124
aF0.64233868314874898
ag117
aa(lp247
g126
aF0
ag127
aa(lp248
g129
aF-7.7192829999999999
ag127
aa(lp249
g131
aF-15.715783
ag127
aa(lp250
g133
aF0.82367355910082096
ag117
aa(lp251
g135
aF170.88999999999999
ag136
aa(lp252
g138
aF-120.81579400000001
ag127
aa(lp253
g140
aF0
ag127
aa(lp254
g142
aF1
ag143
aa(lp255
g145
aF11.08
ag127
aa(lp256
g147
aF9.8399999999999999
ag127
aa(lp257
g149
aF11.470000000000001
ag127
aa(lp258
g151
aF12.23
ag127
aa(lp259
g153
aF0
ag127
aa(lp260
g155
aF2.4300000000000002
ag127
aa(lp261
g157
aF0
ag117
aa(lp262
g159
aF0.72680152072117798
ag117
aa(lp263
g161
aF0
ag127
aa(lp264
g163
aF-39.614238999999998
ag127
aa(lp265
g165
aF-52.028658
ag127
aa(lp266
g167
aF4
ag117
aa(lp267
g169
aF0
ag117
aa(lp268
g171
aF1.6851160000000001
ag117
aa(lp269
g173
aF1.808665
ag117
aa(lp270
g175
aF0
ag117
aa(lp271
g177
aF0
ag117
aa(lp272
g179
aF0
ag117
aasg180
(lp273
(lp274
F0.011355000000000001
aF5
aF1.6000000000000001
aa(lp275
F0.045924
aF5
aF1.8500000000000001
aa(lp276
F-0.020060999999999999
aF5
aF2.0499999999999998
aa(lp277
F-0.0012600000000000001
aF5
aF2.6499999999999999
aasg185
(lp278
g187
ag188
aS'A'
asg189
(lp279
g191
ag192
ag193
asbsa(dp280
g51
I17
sg14
g1
(g52
tRp281
(dp282
g55
I01
sg56
I17
sg57
I01
sg58
(lp283
g60
ag61
asg62
(lp284
(dp285
g65
(lp286
(lp287
F3.2730319379999999
a(lp288
F-0.0067755969470000002
aaa(lp289
F0.92006113109999998
a(lp290
F-0.056393257789999998
aaa(lp291
F0.35933497650000001
a(lp292
F-0.15878560859999999
aaa(lp293
F0.086366869910000005
a(lp294
F0.55345276509999997
aaa(lp295
F0.047973738119999998
a(lp296
F0.50153510199999995
aaa(lp297
F0.027247411440000001
a(lp298
F0.072236336740000004
aaasg79
S'S'
sa(dp299
g65
(lp300
(lp301
F5.0779736069999997
a(lp302
F-0.0033299298399999998
aaa(lp303
F1.3407869400000001
a(lp304
F-0.0141948834
aaa(lp305
F0.2248434849
a(lp306
F0.163939577
aaa(lp307
F0.11317418479999999
a(lp308
F0.44853582559999999
aaa(lp309
F0.060764088930000001
a(lp310
F0.39088130500000001
aaa(lp311
F0.033154242649999999
a(lp312
F0.074114562319999994
aaasg79
S'P'
sasbsg80
g1
(g81
tRp313
(dp314
g84
(lp315
g86
ag87
ag88
asg89
(lp316
(lp317
g51
aI17
ag92
aa(lp318
g94
aI4
ag92
aa(lp319
g96
aI3
ag92
aa(lp320
g98
aI3
ag92
aa(lp321
g100
aI0
ag92
aa(lp322
g102
aI0
ag92
aa(lp323
g104
aI0
ag92
aa(lp324
g106
aI0
ag92
aa(lp325
g108
aI0
ag92
aa(lp326
g110
aI0
ag92
aa(lp327
g112
aI3
ag92
aa(lp328
g114
aI3
ag92
aa(lp329
g116
aF0.76930341998930396
ag117
aa(lp330
g119
aF2.919368
ag120
aa(lp331
g122
aF0.55234237006855003
ag117
aa(lp332
g124
aF0.61332644529569202
ag117
aa(lp333
g126
aF0
ag127
aa(lp334
g129
aF-14.637216
ag127
aa(lp335
g131
aF-24.594670000000001
ag127
aa(lp336
g133
aF0.540628637004127
ag117
aa(lp337
g135
aF28.989999999999998
ag136
aa(lp338
g138
aF-372.19843100000008
ag127
aa(lp339
g140
aF0
ag127
aa(lp340
g142
aF1
ag143
aa(lp341
g145
aF11.300000000000001
ag127
aa(lp342
g147
aF9.9700000000000006
ag127
aa(lp343
g149
aF13.16
ag127
aa(lp344
g151
aF15.029999999999999
ag127
aa(lp345
g153
aF0
ag127
aa(lp346
g155
aF2.4199999999999999
ag127
aa(lp347
g157
aF0
ag117
aa(lp348
g159
aF0.80572075249850905
ag117
aa(lp349
g161
aF0
ag127
aa(lp350
g163
aF-76.640107
ag127
aa(lp351
g165
aF-111.61394799999999
ag127
aa(lp352
g167
aF7
ag117
aa(lp353
g169
aF0
ag117
aa(lp354
g171
aF2.0767989999999998
ag117
aa(lp355
g173
aF3.6313759999999999
ag117
aa(lp356
g175
aF0
ag117
aa(lp357
g177
aF0
ag117
aa(lp358
g179
aF0
ag117
aasg180
(lp359
(lp360
F0.094242999999999993
aF4
aF1.3
aa(lp361
F0.027168000000000001
aF4
aF2.1000000000000001
aasg185
(lp362
g187
ag188
aS'A'
asg189
(lp363
g191
ag192
ag193
asbsa(dp364
g51
I35
sg14
g1
(g52
tRp365
(dp366
g55
I01
sg56
I35
sg57
I01
sg58
(lp367
g60
ag61
asg62
(lp368
(dp369
g65
(lp370
(lp371
F3.2328386459999998
a(lp372
F0.001374817488
aaa(lp373
F0.36057888020000001
a(lp374
F-0.086663900429999996
aaa(lp375
F0.17179054869999999
a(lp376
F-0.31306273089999997
aaa(lp377
F0.052776664869999997
a(lp378
F0.78127873969999995
aaa(lp379
F0.031634002840000001
a(lp380
F0.43892479880000002
aaa(lp381
F0.018740930909999998
a(lp382
F0.024871787560000001
aaasg79
S'S'
sa(dp383
g65
(lp384
(lp385
F2.389722618
a(lp386
F-0.0016659135750000001
aaa(lp387
F0.79609478259999999
a(lp388
F-0.01657464971
aaa(lp389
F0.34155413800000001
a(lp390
F-0.059585133780000001
aaa(lp391
F0.088474345250000003
a(lp392
F0.40531155540000002
aaa(lp393
F0.049582483339999997
a(lp394
F0.54339581889999999
aaa(lp395
F0.02816929784
a(lp396
F0.1204970491
aaasg79
S'P'
sasbsg80
g1
(g81
tRp397
(dp398
g84
(lp399
g86
ag87
ag88
asg89
(lp400
(lp401
g51
aI35
ag92
aa(lp402
g94
aI4
ag92
aa(lp403
g96
aI4
ag92
aa(lp404
g98
aI4
ag92
aa(lp405
g100
aI0
ag92
aa(lp406
g102
aI0
ag92
aa(lp407
g104
aI0
ag92
aa(lp408
g106
aI0
ag92
aa(lp409
g108
aI0
ag92
aa(lp410
g110
aI0
ag92
aa(lp411
g112
aI4
ag92
aa(lp412
g114
aI4
ag92
aa(lp413
g116
aF0.60244582258994295
ag117
aa(lp414
g119
aF2.576546
ag120
aa(lp415
g122
aF0.55257901735345105
ag117
aa(lp416
g124
aF0.53074591088592804
ag117
aa(lp417
g126
aF0
ag127
aa(lp418
g129
aF-8.9571950000000005
ag127
aa(lp419
g131
aF-19.39988
ag127
aa(lp420
g133
aF0.845810384396393
ag117
aa(lp421
g135
aF26.739999999999998
ag136
aa(lp422
g138
aF-352.31420900000001
ag127
aa(lp423
g140
aF0
ag127
aa(lp424
g142
aF1
ag143
aa(lp425
g145
aF11.276325399999999
ag127
aa(lp426
g147
aF9.8544254999999996
ag127
aa(lp427
g149
aF13.034682399999999
ag127
aa(lp428
g151
aF15.0364395
ag127
aa(lp429
g153
aF0
ag127
aa(lp430
g155
aF2.4558683000000001
ag127
aa(lp431
g157
aF0
ag117
aa(lp432
g159
aF1.0407133395571979
ag117
aa(lp433
g161
aF0
ag127
aa(lp434
g163
aF-74.930052000000003
ag127
aa(lp435
g165
aF-104.656063
ag127
aa(lp436
g167
aF7
ag117
aa(lp437
g169
aF0
ag117
aa(lp438
g171
aF2.0383330000000002
ag117
aa(lp439
g173
aF3.064133
ag117
aa(lp440
g175
aF0
ag117
aa(lp441
g177
aF0
ag117
aa(lp442
g179
aF0
ag117
aasg180
(lp443
(lp444
F0.066684999999999994
aF4
aF1.5
aa(lp445
F0.025568
aF4
aF2.2999999999999998
aasg185
(lp446
g187
ag188
aS'A'
asg189
(lp447
g191
ag192
ag193
asbsasbsS'qcAtoms'
p448
g1
(cpMolecule.QCAtomContainer
QCAtomContainer
p449
tRp450
(dp451
S'poissonFunctions'
p452
I0
sS'mmPartners'
p453
(dp454
sS'orbitalWorkFunctions'
p455
I15
sS'densityWorkFunctions'
p456
I0
sS'fittingWorkFunctions'
p457
I0
sS'atomFields'
p458
(lp459
S'isBoundary'
p460
aS'linkFactor'
p461
aS'widthExponent'
p462
aS'widthNormalization'
p463
ag51
aS'center'
p464
aS'index'
p465
aS'qcPartner'
p466
aS'densityStart'
p467
aS'fittingStart'
p468
aS'orbitalStart'
p469
aS'poissonStart'
p470
aS'densityFunctions'
p471
aS'fittingFunctions'
p472
aS'orbitalFunctions'
p473
ag452
aS'densityWorkStart'
p474
aS'fittingWorkStart'
p475
aS'orbitalWorkStart'
p476
aS'poissonWorkStart'
p477
ag456
ag457
ag455
aS'poissonWorkFunctions'
p478
asg472
I0
sS'atoms'
p479
(lp480
(lp481
I00
aF0
aF127323954.47351627
aF258012275465.59592
aI6
aI1
aI0
aI-1
aI0
aI0
aI0
aI0
aI0
aI0
aI4
aI0
aI0
aI0
aI0
aI0
aI0
aI0
aI4
aI0
aa(lp482
I00
aF0
aF127323954.47351627
aF258012275465.59592
aI1
aI0
aI1
aI-1
aI0
aI0
aI4
aI0
aI0
aI0
aI1
aI0
aI0
aI0
aI4
aI0
aI0
aI0
aI1
aI0
aa(lp483
I00
aF0
aF127323954.47351627
aF258012275465.59592
aI1
aI0
aI2
aI-1
aI0
aI0
aI5
aI0
aI0
aI0
aI1
aI0
aI0
aI0
aI5
aI0
aI0
aI0
aI1
aI0
aa(lp484
I00
aF0
aF127323954.47351627
aF258012275465.59592
aI35
aI3
aI3
aI-1
aI0
aI0
aI6
aI0
aI0
aI0
aI4
aI0
aI0
aI0
aI6
aI0
aI0
aI0
aI4
aI0
aa(lp485
I00
aF0
aF127323954.47351627
aF258012275465.59592
aI1
aI0
aI4
aI-1
aI0
aI0
aI10
aI0
aI0
aI0
aI1
aI0
aI0
aI0
aI10
aI0
aI0
aI0
aI1
aI0
aa(lp486
I00
aF0
aF127323954.47351627
aF258012275465.59592
aI17
aI2
aI5
aI-1
aI0
aI0
aI11
aI0
aI0
aI0
aI4
aI0
aI0
aI0
aI11
aI0
aI0
aI0
aI4
aI0
aasS'nuclearCharge'
p487
I21
sS'useSphericalFunctions'
p488
I00
sS'boundaryAtoms'
p489
I0
sS'energyBaseLine'
p490
F32.93191523442718
sS'useLinkRatio'
p491
I01
sg471
I0
sg473
I15
sg478
I0
sbsg31
g32
sbsS'electronicState'
p492
g1
(cpMolecule.ElectronicState
ElectronicState
p493
tRp494
(dp495
S'multiplicity'
p496
I1
sS'charge'
p497
I-1
sbsS'label'
p498
S'SN2_CL_CH3Br'
p499
sS'configuration'
p500
g1
(cpMolecule.Configuration
Configuration
p501
tRp502
(dp503
S'coordinates3'
p504
g1
(cpCore.Coordinates3
Coordinates3
p505
tRp506
(dp507
S'items'
p508
(lp509
F-8.1921314495776585
aF-1.5521348977532781
aF0.9878061648514751
aF-7.0829355131251974
aF-1.5491880537279017
aF1.0281580507431292
aF-8.5826071196844929
aF-0.52166119069456951
aF1.1204636579949072
aF-8.8542713529425843
aF-2.6455744206558447
aF2.4017049983867436
aF-8.5387059506604217
aF-1.9710103167030653
aF0.020140883232250068
aF-3.6143016550696463
aF6.2964125775506581
aF-9.4139168525177048
asS'shape'
p510
(lp511
I6
aI3
asS'storage'
p512
S'RowMajor'
p513
sbsbsg479
(dp514
g51
(lp515
I6
aI1
aI1
aI35
aI1
aI17
assb.